target datalayout = "e-m:e-p270:32:32-p271:32:32-p272:64:64-i64:64-i128:128-f80:128-n8:16:32:64-S128"
target triple = "x86_64-unknown-linux-gnu"

%struct.QTailQLink = type { ptr, ptr }
%struct.VirtIOSCSIReq = type <{ %struct.VirtQueueElement, ptr, ptr, %struct.QEMUSGList, %struct.QEMUIOVector, %union.anon.6, i32, [4 x i8], ptr, i64, i32, %union.anon.7, %union.anon.8, [4 x i8] }>
%struct.VirtQueueElement = type { i32, i32, i32, i32, i32, ptr, ptr, ptr, ptr }
%struct.QEMUSGList = type { ptr, i32, i32, i64, ptr, ptr }
%struct.QEMUIOVector = type { ptr, i32, %union.anon.4 }
%union.anon.4 = type { %struct.anon }
%struct.anon = type { i32, %struct.iovec }
%struct.iovec = type { ptr, i64 }
%union.anon.6 = type { %struct.QTailQLink }
%union.anon.7 = type { %struct.virtio_scsi_event }
%struct.virtio_scsi_event = type { i32, [8 x i8], i32 }
%union.anon.8 = type { %struct.virtio_scsi_ctrl_tmf_req }
%struct.virtio_scsi_ctrl_tmf_req = type { i32, i32, [8 x i8], i64 }
%struct.SCSIRequest = type { ptr, ptr, ptr, i32, i32, i32, i16, i16, ptr, i64, %struct.SCSICommand, %struct.NotifierList, [252 x i8], i32, i8, i8, i8, i8, ptr, ptr, %union.anon.11 }
%struct.SCSICommand = type { [16 x i8], i32, i64, i64, i32 }
%struct.NotifierList = type { %struct.anon.10 }
%struct.anon.10 = type { ptr }
%union.anon.11 = type { %struct.QTailQLink }
%struct.anon.5 = type { [12 x i8], i64 }
%struct.virtio_scsi_cmd_resp = type { i32, i32, i16, i8, i8, [0 x i8] }

@.str.3 = private unnamed_addr constant [14 x i8] c"virtio-device\00", align 1
@.str.4 = private unnamed_addr constant [105 x i8] c"/home/dtcxzyw/WorkSpace/Projects/compilers/llvm-opt-benchmark/bench/qemu/qemu/include/hw/virtio/virtio.h\00", align 1
@__func__.VIRTIO_DEVICE = private unnamed_addr constant [14 x i8] c"VIRTIO_DEVICE\00", align 1

; Function Attrs: nounwind sspstrong uwtable
define internal zeroext i1 @virtio_access_is_big_endian(ptr noundef %vdev) #0 {
entry:
  %vdev.addr = alloca ptr, align 8
  store ptr %vdev, ptr %vdev.addr, align 8
  ret i1 false
}

; Function Attrs: nounwind sspstrong uwtable
define internal i32 @virtio_tswap32(ptr noundef %vdev, i32 noundef %s) #0 {
entry:
  %vdev.addr = alloca ptr, align 8
  %s.addr = alloca i32, align 4
  store ptr %vdev, ptr %vdev.addr, align 8
  store i32 %s, ptr %s.addr, align 4
  %0 = load ptr, ptr %vdev.addr, align 8
  %call = call zeroext i1 @virtio_access_is_big_endian(ptr noundef %0)
  br i1 %call, label %cond.true, label %cond.false

cond.true:                                        ; preds = %entry
  %1 = load i32, ptr %s.addr, align 4
  %2 = call i32 @llvm.bswap.i32(i32 %1)
  br label %cond.end

cond.false:                                       ; preds = %entry
  %3 = load i32, ptr %s.addr, align 4
  br label %cond.end

cond.end:                                         ; preds = %cond.false, %cond.true
  %cond = phi i32 [ %2, %cond.true ], [ %3, %cond.false ]
  ret i32 %cond
}

; Function Attrs: nounwind sspstrong uwtable
define internal ptr @VIRTIO_DEVICE(ptr noundef %obj) #0 {
entry:
  %obj.addr = alloca ptr, align 8
  store ptr %obj, ptr %obj.addr, align 8
  %0 = load ptr, ptr %obj.addr, align 8
  %call = call ptr @object_dynamic_cast_assert(ptr noundef %0, ptr noundef @.str.3, ptr noundef @.str.4, i32 noundef 85, ptr noundef @__func__.VIRTIO_DEVICE)
  ret ptr %call
}

; Function Attrs: nounwind sspstrong uwtable
define internal void @virtio_scsi_command_complete(ptr noundef %r, i64 noundef %resid) #0 {
entry:
  %r.addr = alloca ptr, align 8
  %resid.addr = alloca i64, align 8
  %req = alloca ptr, align 8
  %sense = alloca [252 x i8], align 16
  %sense_len = alloca i32, align 4
  %vdev = alloca ptr, align 8
  %_a7 = alloca i64, align 8
  %_b8 = alloca i64, align 8
  %tmp = alloca i64, align 8
  store ptr %r, ptr %r.addr, align 8
  store i64 %resid, ptr %resid.addr, align 8
  %0 = load ptr, ptr %r.addr, align 8
  %hba_private = getelementptr inbounds %struct.SCSIRequest, ptr %0, i32 0, i32 8
  %1 = load ptr, ptr %hba_private, align 8
  store ptr %1, ptr %req, align 8
  %2 = load ptr, ptr %req, align 8
  %dev = getelementptr inbounds %struct.VirtIOSCSIReq, ptr %2, i32 0, i32 1
  %3 = load ptr, ptr %dev, align 8
  %call = call ptr @VIRTIO_DEVICE(ptr noundef %3)
  store ptr %call, ptr %vdev, align 8
  %4 = load ptr, ptr %r.addr, align 8
  %io_canceled = getelementptr inbounds %struct.SCSIRequest, ptr %4, i32 0, i32 15
  %5 = load i8, ptr %io_canceled, align 1
  %tobool = trunc i8 %5 to i1
  br i1 %tobool, label %if.then, label %if.end

if.then:                                          ; preds = %entry
  br label %return

if.end:                                           ; preds = %entry
  %6 = load ptr, ptr %req, align 8
  %resp = getelementptr inbounds %struct.VirtIOSCSIReq, ptr %6, i32 0, i32 11
  %response = getelementptr inbounds %struct.virtio_scsi_cmd_resp, ptr %resp, i32 0, i32 4
  store i8 0, ptr %response, align 1
  %7 = load ptr, ptr %r.addr, align 8
  %status = getelementptr inbounds %struct.SCSIRequest, ptr %7, i32 0, i32 6
  %8 = load i16, ptr %status, align 4
  %conv = trunc i16 %8 to i8
  %9 = load ptr, ptr %req, align 8
  %resp1 = getelementptr inbounds %struct.VirtIOSCSIReq, ptr %9, i32 0, i32 11
  %status2 = getelementptr inbounds %struct.virtio_scsi_cmd_resp, ptr %resp1, i32 0, i32 3
  store i8 %conv, ptr %status2, align 2
  %10 = load ptr, ptr %req, align 8
  %resp3 = getelementptr inbounds %struct.VirtIOSCSIReq, ptr %10, i32 0, i32 11
  %status4 = getelementptr inbounds %struct.virtio_scsi_cmd_resp, ptr %resp3, i32 0, i32 3
  %11 = load i8, ptr %status4, align 2
  %conv5 = zext i8 %11 to i32
  %cmp = icmp eq i32 %conv5, 0
  br i1 %cmp, label %if.then7, label %if.else

if.then7:                                         ; preds = %if.end
  %12 = load ptr, ptr %vdev, align 8
  %13 = load i64, ptr %resid.addr, align 8
  %conv8 = trunc i64 %13 to i32
  %call9 = call i32 @virtio_tswap32(ptr noundef %12, i32 noundef %conv8)
  %14 = load ptr, ptr %req, align 8
  %resp10 = getelementptr inbounds %struct.VirtIOSCSIReq, ptr %14, i32 0, i32 11
  %resid11 = getelementptr inbounds %struct.virtio_scsi_cmd_resp, ptr %resp10, i32 0, i32 1
  store i32 %call9, ptr %resid11, align 4
  br label %if.end26

if.else:                                          ; preds = %if.end
  %15 = load ptr, ptr %req, align 8
  %resp12 = getelementptr inbounds %struct.VirtIOSCSIReq, ptr %15, i32 0, i32 11
  %resid13 = getelementptr inbounds %struct.virtio_scsi_cmd_resp, ptr %resp12, i32 0, i32 1
  store i32 0, ptr %resid13, align 4
  %16 = load ptr, ptr %r.addr, align 8
  %arraydecay = getelementptr inbounds [252 x i8], ptr %sense, i64 0, i64 0
  %call14 = call i32 @scsi_req_get_sense(ptr noundef %16, ptr noundef %arraydecay, i32 noundef 252)
  store i32 %call14, ptr %sense_len, align 4
  %17 = load i32, ptr %sense_len, align 4
  %conv15 = zext i32 %17 to i64
  store i64 %conv15, ptr %_a7, align 8
  %18 = load ptr, ptr %req, align 8
  %resp_iov = getelementptr inbounds %struct.VirtIOSCSIReq, ptr %18, i32 0, i32 4
  %19 = getelementptr inbounds %struct.QEMUIOVector, ptr %resp_iov, i32 0, i32 2
  %size = getelementptr inbounds %struct.anon.5, ptr %19, i32 0, i32 1
  %20 = load i64, ptr %size, align 8
  %sub = sub i64 %20, 12
  store i64 %sub, ptr %_b8, align 8
  %21 = load i64, ptr %_a7, align 8
  %22 = load i64, ptr %_b8, align 8
  %cmp16 = icmp ult i64 %21, %22
  br i1 %cmp16, label %cond.true, label %cond.false

cond.true:                                        ; preds = %if.else
  %23 = load i64, ptr %_a7, align 8
  br label %cond.end

cond.false:                                       ; preds = %if.else
  %24 = load i64, ptr %_b8, align 8
  br label %cond.end

cond.end:                                         ; preds = %cond.false, %cond.true
  %cond = phi i64 [ %23, %cond.true ], [ %24, %cond.false ]
  store i64 %cond, ptr %tmp, align 8
  %25 = load i64, ptr %tmp, align 8
  %conv18 = trunc i64 %25 to i32
  store i32 %conv18, ptr %sense_len, align 4
  %26 = load ptr, ptr %req, align 8
  %resp_iov19 = getelementptr inbounds %struct.VirtIOSCSIReq, ptr %26, i32 0, i32 4
  %arraydecay20 = getelementptr inbounds [252 x i8], ptr %sense, i64 0, i64 0
  %27 = load i32, ptr %sense_len, align 4
  %conv21 = zext i32 %27 to i64
  %call22 = call i64 @qemu_iovec_from_buf(ptr noundef %resp_iov19, i64 noundef 12, ptr noundef %arraydecay20, i64 noundef %conv21)
  %28 = load ptr, ptr %vdev, align 8
  %29 = load i32, ptr %sense_len, align 4
  %call23 = call i32 @virtio_tswap32(ptr noundef %28, i32 noundef %29)
  %30 = load ptr, ptr %req, align 8
  %resp24 = getelementptr inbounds %struct.VirtIOSCSIReq, ptr %30, i32 0, i32 11
  %sense_len25 = getelementptr inbounds %struct.virtio_scsi_cmd_resp, ptr %resp24, i32 0, i32 0
  store i32 %call23, ptr %sense_len25, align 4
  br label %if.end26

if.end26:                                         ; preds = %cond.end, %if.then7
  %31 = load ptr, ptr %req, align 8
  call void @virtio_scsi_complete_cmd_req(ptr noundef %31)
  br label %return

return:                                           ; preds = %if.end26, %if.then
  ret void
}