; Function Attrs: nounwind sspstrong uwtable
define internal void @virtio_scsi_command_complete(ptr noundef %r, i64 noundef %resid) #0 {
entry:
  %sense = alloca [252 x i8], align 16
  %hba_private = getelementptr inbounds nuw i8, ptr %r, i64 40
  %0 = load ptr, ptr %hba_private, align 8
  %dev = getelementptr inbounds nuw i8, ptr %0, i64 56
  %1 = load ptr, ptr %dev, align 8
  %call.i = tail call ptr @object_dynamic_cast_assert(ptr noundef %1, ptr noundef nonnull @.str.3, ptr noundef nonnull @.str.4, i32 noundef 85, ptr noundef nonnull @__func__.VIRTIO_DEVICE) #13
  %io_canceled = getelementptr inbounds nuw i8, ptr %r, i64 369
  %2 = load i8, ptr %io_canceled, align 1
  %tobool = trunc i8 %2 to i1
  br i1 %tobool, label %return, label %if.end

if.end:                                           ; preds = %entry
  %response = getelementptr inbounds nuw i8, ptr %0, i64 207
  store i8 0, ptr %response, align 1
  %status = getelementptr inbounds nuw i8, ptr %r, i64 36
  %3 = load i16, ptr %status, align 4
  %conv = trunc i16 %3 to i8
  %status2 = getelementptr inbounds nuw i8, ptr %0, i64 206
  store i8 %conv, ptr %status2, align 2
  %conv.mask = and i16 %3, 255
  %cmp = icmp eq i16 %conv.mask, 0
  %resid11 = getelementptr inbounds nuw i8, ptr %0, i64 200
  br i1 %cmp, label %if.then7, label %if.else

if.then7:                                         ; preds = %if.end
  %conv8 = trunc i64 %resid to i32
  store i32 %conv8, ptr %resid11, align 4
  br label %if.end26

if.else:                                          ; preds = %if.end
  %resp = getelementptr inbounds nuw i8, ptr %0, i64 196
  store i32 0, ptr %resid11, align 4
  %call14 = call i32 @scsi_req_get_sense(ptr noundef nonnull %r, ptr noundef nonnull %sense, i32 noundef 252) #13
  %conv15 = zext i32 %call14 to i64
  %resp_iov = getelementptr inbounds nuw i8, ptr %0, i64 112
  %size = getelementptr inbounds nuw i8, ptr %0, i64 144
  %4 = load i64, ptr %size, align 8
  %sub = add i64 %4, -12
  %cond = call i64 @llvm.umin.i64(i64 %sub, i64 %conv15)
  %conv18 = trunc nuw i64 %cond to i32
  %call22 = call i64 @qemu_iovec_from_buf(ptr noundef nonnull %resp_iov, i64 noundef 12, ptr noundef nonnull %sense, i64 noundef %cond) #13
  store i32 %conv18, ptr %resp, align 4
  br label %if.end26

if.end26:                                         ; preds = %if.else, %if.then7
  call fastcc void @virtio_scsi_complete_cmd_req(ptr noundef nonnull %0)
  br label %return

return:                                           ; preds = %entry, %if.end26
  ret void
}